
test_mem_layout:     file format elf64-x86-64

Disassembly of section .init:

00000000004003b8 <_init>:
  4003b8:	48 83 ec 08          	sub    $0x8,%rsp
  4003bc:	e8 6b 00 00 00       	callq  40042c <call_gmon_start>
  4003c1:	e8 ea 00 00 00       	callq  4004b0 <frame_dummy>
  4003c6:	e8 d5 02 00 00       	callq  4006a0 <__do_global_ctors_aux>
  4003cb:	48 83 c4 08          	add    $0x8,%rsp
  4003cf:	c3                   	retq   
Disassembly of section .plt:

00000000004003d0 <__libc_start_main@plt-0x10>:
  4003d0:	ff 35 1a 06 20 00    	pushq  2098714(%rip)        # 6009f0 <_GLOBAL_OFFSET_TABLE_+0x8>
  4003d6:	ff 25 1c 06 20 00    	jmpq   *2098716(%rip)        # 6009f8 <_GLOBAL_OFFSET_TABLE_+0x10>
  4003dc:	0f 1f 40 00          	nopl   0x0(%rax)

00000000004003e0 <__libc_start_main@plt>:
  4003e0:	ff 25 1a 06 20 00    	jmpq   *2098714(%rip)        # 600a00 <_GLOBAL_OFFSET_TABLE_+0x18>
  4003e6:	68 00 00 00 00       	pushq  $0x0
  4003eb:	e9 e0 ff ff ff       	jmpq   4003d0 <_init+0x18>

00000000004003f0 <fprintf@plt>:
  4003f0:	ff 25 12 06 20 00    	jmpq   *2098706(%rip)        # 600a08 <_GLOBAL_OFFSET_TABLE_+0x20>
  4003f6:	68 01 00 00 00       	pushq  $0x1
  4003fb:	e9 d0 ff ff ff       	jmpq   4003d0 <_init+0x18>
Disassembly of section .text:

0000000000400400 <_start>:
  400400:	31 ed                	xor    %ebp,%ebp
  400402:	49 89 d1             	mov    %rdx,%r9
  400405:	5e                   	pop    %rsi
  400406:	48 89 e2             	mov    %rsp,%rdx
  400409:	48 83 e4 f0          	and    $0xfffffffffffffff0,%rsp
  40040d:	50                   	push   %rax
  40040e:	54                   	push   %rsp
  40040f:	49 c7 c0 00 06 40 00 	mov    $0x400600,%r8
  400416:	48 c7 c1 10 06 40 00 	mov    $0x400610,%rcx
  40041d:	48 c7 c7 87 05 40 00 	mov    $0x400587,%rdi
  400424:	e8 b7 ff ff ff       	callq  4003e0 <__libc_start_main@plt>
  400429:	f4                   	hlt    
  40042a:	90                   	nop    
  40042b:	90                   	nop    

000000000040042c <call_gmon_start>:
  40042c:	48 83 ec 08          	sub    $0x8,%rsp
  400430:	48 8b 05 a9 05 20 00 	mov    2098601(%rip),%rax        # 6009e0 <_DYNAMIC+0x190>
  400437:	48 85 c0             	test   %rax,%rax
  40043a:	74 02                	je     40043e <call_gmon_start+0x12>
  40043c:	ff d0                	callq  *%rax
  40043e:	48 83 c4 08          	add    $0x8,%rsp
  400442:	c3                   	retq   
  400443:	90                   	nop    
  400444:	90                   	nop    
  400445:	90                   	nop    
  400446:	90                   	nop    
  400447:	90                   	nop    
  400448:	90                   	nop    
  400449:	90                   	nop    
  40044a:	90                   	nop    
  40044b:	90                   	nop    
  40044c:	90                   	nop    
  40044d:	90                   	nop    
  40044e:	90                   	nop    
  40044f:	90                   	nop    

0000000000400450 <__do_global_dtors_aux>:
  400450:	55                   	push   %rbp
  400451:	48 89 e5             	mov    %rsp,%rbp
  400454:	53                   	push   %rbx
  400455:	48 83 ec 08          	sub    $0x8,%rsp
  400459:	80 3d d0 05 20 00 00 	cmpb   $0x0,2098640(%rip)        # 600a30 <completed.6145>
  400460:	75 44                	jne    4004a6 <__do_global_dtors_aux+0x56>
  400462:	b8 40 08 60 00       	mov    $0x600840,%eax
  400467:	48 2d 38 08 60 00    	sub    $0x600838,%rax
  40046d:	48 c1 f8 03          	sar    $0x3,%rax
  400471:	48 8d 58 ff          	lea    0xffffffffffffffff(%rax),%rbx
  400475:	48 8b 05 ac 05 20 00 	mov    2098604(%rip),%rax        # 600a28 <dtor_idx.6147>
  40047c:	48 39 c3             	cmp    %rax,%rbx
  40047f:	76 1e                	jbe    40049f <__do_global_dtors_aux+0x4f>
  400481:	48 83 c0 01          	add    $0x1,%rax
  400485:	48 89 05 9c 05 20 00 	mov    %rax,2098588(%rip)        # 600a28 <dtor_idx.6147>
  40048c:	ff 14 c5 38 08 60 00 	callq  *0x600838(,%rax,8)
  400493:	48 8b 05 8e 05 20 00 	mov    2098574(%rip),%rax        # 600a28 <dtor_idx.6147>
  40049a:	48 39 c3             	cmp    %rax,%rbx
  40049d:	77 e2                	ja     400481 <__do_global_dtors_aux+0x31>
  40049f:	c6 05 8a 05 20 00 01 	movb   $0x1,2098570(%rip)        # 600a30 <completed.6145>
  4004a6:	48 83 c4 08          	add    $0x8,%rsp
  4004aa:	5b                   	pop    %rbx
  4004ab:	c9                   	leaveq 
  4004ac:	c3                   	retq   
  4004ad:	0f 1f 00             	nopl   (%rax)

00000000004004b0 <frame_dummy>:
  4004b0:	55                   	push   %rbp
  4004b1:	48 83 3d 8f 03 20 00 	cmpq   $0x0,2098063(%rip)        # 600848 <__JCR_END__>
  4004b8:	00 
  4004b9:	48 89 e5             	mov    %rsp,%rbp
  4004bc:	74 16                	je     4004d4 <frame_dummy+0x24>
  4004be:	b8 00 00 00 00       	mov    $0x0,%eax
  4004c3:	48 85 c0             	test   %rax,%rax
  4004c6:	74 0c                	je     4004d4 <frame_dummy+0x24>
  4004c8:	bf 48 08 60 00       	mov    $0x600848,%edi
  4004cd:	49 89 c3             	mov    %rax,%r11
  4004d0:	c9                   	leaveq 
  4004d1:	41 ff e3             	jmpq   *%r11
  4004d4:	c9                   	leaveq 
  4004d5:	c3                   	retq   
  4004d6:	90                   	nop    
  4004d7:	90                   	nop    

00000000004004d8 <bin2hex>:
  4004d8:	55                   	push   %rbp
  4004d9:	48 89 e5             	mov    %rsp,%rbp
  4004dc:	48 89 7d d8          	mov    %rdi,0xffffffffffffffd8(%rbp)
  4004e0:	48 89 75 d0          	mov    %rsi,0xffffffffffffffd0(%rbp)
  4004e4:	48 89 55 c8          	mov    %rdx,0xffffffffffffffc8(%rbp)
  4004e8:	48 89 4d c0          	mov    %rcx,0xffffffffffffffc0(%rbp)
  4004ec:	48 c7 45 e8 00 00 00 	movq   $0x0,0xffffffffffffffe8(%rbp)
  4004f3:	00 
  4004f4:	48 83 6d c0 01       	subq   $0x1,0xffffffffffffffc0(%rbp)
  4004f9:	48 c7 45 f0 00 00 00 	movq   $0x0,0xfffffffffffffff0(%rbp)
  400500:	00 
  400501:	eb 6a                	jmp    40056d <bin2hex+0x95>
  400503:	48 8b 45 f0          	mov    0xfffffffffffffff0(%rbp),%rax
  400507:	48 03 45 d8          	add    0xffffffffffffffd8(%rbp),%rax
  40050b:	0f b6 00             	movzbl (%rax),%eax
  40050e:	88 45 ff             	mov    %al,0xffffffffffffffff(%rbp)
  400511:	48 8b 45 e8          	mov    0xffffffffffffffe8(%rbp),%rax
  400515:	48 89 c1             	mov    %rax,%rcx
  400518:	48 03 4d c8          	add    0xffffffffffffffc8(%rbp),%rcx
  40051c:	0f b6 45 ff          	movzbl 0xffffffffffffffff(%rbp),%eax
  400520:	c0 e8 04             	shr    $0x4,%al
  400523:	0f b6 c0             	movzbl %al,%eax
  400526:	48 89 c2             	mov    %rax,%rdx
  400529:	48 8b 05 e8 04 20 00 	mov    2098408(%rip),%rax        # 600a18 <HexAlphabet>
  400530:	48 8d 04 02          	lea    (%rdx,%rax,1),%rax
  400534:	0f b6 00             	movzbl (%rax),%eax
  400537:	88 01                	mov    %al,(%rcx)
  400539:	48 8b 55 c8          	mov    0xffffffffffffffc8(%rbp),%rdx
  40053d:	48 83 c2 01          	add    $0x1,%rdx
  400541:	48 8b 45 e8          	mov    0xffffffffffffffe8(%rbp),%rax
  400545:	48 8d 0c 02          	lea    (%rdx,%rax,1),%rcx
  400549:	0f b6 45 ff          	movzbl 0xffffffffffffffff(%rbp),%eax
  40054d:	83 e0 0f             	and    $0xf,%eax
  400550:	48 89 c2             	mov    %rax,%rdx
  400553:	48 8b 05 be 04 20 00 	mov    2098366(%rip),%rax        # 600a18 <HexAlphabet>
  40055a:	48 8d 04 02          	lea    (%rdx,%rax,1),%rax
  40055e:	0f b6 00             	movzbl (%rax),%eax
  400561:	88 01                	mov    %al,(%rcx)
  400563:	48 83 45 e8 02       	addq   $0x2,0xffffffffffffffe8(%rbp)
  400568:	48 83 45 f0 01       	addq   $0x1,0xfffffffffffffff0(%rbp)
  40056d:	48 8b 45 f0          	mov    0xfffffffffffffff0(%rbp),%rax
  400571:	48 3b 45 d0          	cmp    0xffffffffffffffd0(%rbp),%rax
  400575:	73 0a                	jae    400581 <bin2hex+0xa9>
  400577:	48 8b 45 e8          	mov    0xffffffffffffffe8(%rbp),%rax
  40057b:	48 3b 45 c0          	cmp    0xffffffffffffffc0(%rbp),%rax
  40057f:	72 82                	jb     400503 <bin2hex+0x2b>
  400581:	48 8b 45 e8          	mov    0xffffffffffffffe8(%rbp),%rax
  400585:	c9                   	leaveq 
  400586:	c3                   	retq   

0000000000400587 <main>:
  400587:	55                   	push   %rbp
  400588:	48 89 e5             	mov    %rsp,%rbp
  40058b:	48 83 ec 10          	sub    $0x10,%rsp
  40058f:	0f b6 45 ff          	movzbl 0xffffffffffffffff(%rbp),%eax
  400593:	83 e0 c0             	and    $0xffffffffffffffc0,%eax
  400596:	83 c8 30             	or     $0x30,%eax
  400599:	88 45 ff             	mov    %al,0xffffffffffffffff(%rbp)
  40059c:	0f b6 45 ff          	movzbl 0xffffffffffffffff(%rbp),%eax
  4005a0:	83 c8 40             	or     $0x40,%eax
  4005a3:	88 45 ff             	mov    %al,0xffffffffffffffff(%rbp)
  4005a6:	0f b6 45 ff          	movzbl 0xffffffffffffffff(%rbp),%eax
  4005aa:	83 c8 80             	or     $0xffffffffffffff80,%eax
  4005ad:	88 45 ff             	mov    %al,0xffffffffffffffff(%rbp)
  4005b0:	0f b6 45 ff          	movzbl 0xffffffffffffffff(%rbp),%eax
  4005b4:	c0 e8 07             	shr    $0x7,%al
  4005b7:	0f b6 c8             	movzbl %al,%ecx
  4005ba:	0f b6 45 ff          	movzbl 0xffffffffffffffff(%rbp),%eax
  4005be:	c0 e8 06             	shr    $0x6,%al
  4005c1:	83 e0 01             	and    $0x1,%eax
  4005c4:	0f b6 f0             	movzbl %al,%esi
  4005c7:	0f b6 45 ff          	movzbl 0xffffffffffffffff(%rbp),%eax
  4005cb:	83 e0 3f             	and    $0x3f,%eax
  4005ce:	0f b6 d0             	movzbl %al,%edx
  4005d1:	48 8b 3d 48 04 20 00 	mov    2098248(%rip),%rdi        # 600a20 <__bss_start>
  4005d8:	41 b9 09 07 40 00    	mov    $0x400709,%r9d
  4005de:	41 89 c8             	mov    %ecx,%r8d
  4005e1:	89 f1                	mov    %esi,%ecx
  4005e3:	be 10 07 40 00       	mov    $0x400710,%esi
  4005e8:	b8 00 00 00 00       	mov    $0x0,%eax
  4005ed:	e8 fe fd ff ff       	callq  4003f0 <fprintf@plt>
  4005f2:	b8 00 00 00 00       	mov    $0x0,%eax
  4005f7:	c9                   	leaveq 
  4005f8:	c3                   	retq   
  4005f9:	90                   	nop    
  4005fa:	90                   	nop    
  4005fb:	90                   	nop    
  4005fc:	90                   	nop    
  4005fd:	90                   	nop    
  4005fe:	90                   	nop    
  4005ff:	90                   	nop    

0000000000400600 <__libc_csu_fini>:
  400600:	f3 c3                	repz retq 
  400602:	0f 1f 80 00 00 00 00 	nopl   0x0(%rax)
  400609:	0f 1f 80 00 00 00 00 	nopl   0x0(%rax)

0000000000400610 <__libc_csu_init>:
  400610:	4c 89 64 24 e0       	mov    %r12,0xffffffffffffffe0(%rsp)
  400615:	4c 89 6c 24 e8       	mov    %r13,0xffffffffffffffe8(%rsp)
  40061a:	4c 8d 25 03 02 20 00 	lea    2097667(%rip),%r12        # 600824 <__fini_array_end>
  400621:	4c 89 74 24 f0       	mov    %r14,0xfffffffffffffff0(%rsp)
  400626:	4c 89 7c 24 f8       	mov    %r15,0xfffffffffffffff8(%rsp)
  40062b:	49 89 f6             	mov    %rsi,%r14
  40062e:	48 89 5c 24 d0       	mov    %rbx,0xffffffffffffffd0(%rsp)
  400633:	48 89 6c 24 d8       	mov    %rbp,0xffffffffffffffd8(%rsp)
  400638:	48 83 ec 38          	sub    $0x38,%rsp
  40063c:	41 89 ff             	mov    %edi,%r15d
  40063f:	49 89 d5             	mov    %rdx,%r13
  400642:	e8 71 fd ff ff       	callq  4003b8 <_init>
  400647:	48 8d 05 d6 01 20 00 	lea    2097622(%rip),%rax        # 600824 <__fini_array_end>
  40064e:	49 29 c4             	sub    %rax,%r12
  400651:	49 c1 fc 03          	sar    $0x3,%r12
  400655:	4d 85 e4             	test   %r12,%r12
  400658:	74 1e                	je     400678 <__libc_csu_init+0x68>
  40065a:	31 ed                	xor    %ebp,%ebp
  40065c:	48 89 c3             	mov    %rax,%rbx
  40065f:	90                   	nop    
  400660:	48 83 c5 01          	add    $0x1,%rbp
  400664:	4c 89 ea             	mov    %r13,%rdx
  400667:	4c 89 f6             	mov    %r14,%rsi
  40066a:	44 89 ff             	mov    %r15d,%edi
  40066d:	ff 13                	callq  *(%rbx)
  40066f:	48 83 c3 08          	add    $0x8,%rbx
  400673:	49 39 ec             	cmp    %rbp,%r12
  400676:	75 e8                	jne    400660 <__libc_csu_init+0x50>
  400678:	48 8b 5c 24 08       	mov    0x8(%rsp),%rbx
  40067d:	48 8b 6c 24 10       	mov    0x10(%rsp),%rbp
  400682:	4c 8b 64 24 18       	mov    0x18(%rsp),%r12
  400687:	4c 8b 6c 24 20       	mov    0x20(%rsp),%r13
  40068c:	4c 8b 74 24 28       	mov    0x28(%rsp),%r14
  400691:	4c 8b 7c 24 30       	mov    0x30(%rsp),%r15
  400696:	48 83 c4 38          	add    $0x38,%rsp
  40069a:	c3                   	retq   
  40069b:	90                   	nop    
  40069c:	90                   	nop    
  40069d:	90                   	nop    
  40069e:	90                   	nop    
  40069f:	90                   	nop    

00000000004006a0 <__do_global_ctors_aux>:
  4006a0:	55                   	push   %rbp
  4006a1:	48 89 e5             	mov    %rsp,%rbp
  4006a4:	53                   	push   %rbx
  4006a5:	bb 28 08 60 00       	mov    $0x600828,%ebx
  4006aa:	48 83 ec 08          	sub    $0x8,%rsp
  4006ae:	48 8b 05 73 01 20 00 	mov    2097523(%rip),%rax        # 600828 <__CTOR_LIST__>
  4006b5:	48 83 f8 ff          	cmp    $0xffffffffffffffff,%rax
  4006b9:	74 14                	je     4006cf <__do_global_ctors_aux+0x2f>
  4006bb:	0f 1f 44 00 00       	nopl   0x0(%rax,%rax,1)
  4006c0:	48 83 eb 08          	sub    $0x8,%rbx
  4006c4:	ff d0                	callq  *%rax
  4006c6:	48 8b 03             	mov    (%rbx),%rax
  4006c9:	48 83 f8 ff          	cmp    $0xffffffffffffffff,%rax
  4006cd:	75 f1                	jne    4006c0 <__do_global_ctors_aux+0x20>
  4006cf:	48 83 c4 08          	add    $0x8,%rsp
  4006d3:	5b                   	pop    %rbx
  4006d4:	c9                   	leaveq 
  4006d5:	c3                   	retq   
  4006d6:	90                   	nop    
  4006d7:	90                   	nop    
Disassembly of section .fini:

00000000004006d8 <_fini>:
  4006d8:	48 83 ec 08          	sub    $0x8,%rsp
  4006dc:	e8 6f fd ff ff       	callq  400450 <__do_global_dtors_aux>
  4006e1:	48 83 c4 08          	add    $0x8,%rsp
  4006e5:	c3                   	retq   